; ModuleID = '14/437.c'
source_filename = "14/437.c"
target datalayout = "e-m:e-p270:32:32-p271:32:32-p272:64:64-i64:64-f80:128-n8:16:32:64-S128"
target triple = "x86_64-pc-linux-gnu"

%struct.Student = type { i32, i32, i32 }

@.str = private unnamed_addr constant [3 x i8] c"%d\00", align 1
@.str.1 = private unnamed_addr constant [9 x i8] c"%d %d %d\00", align 1
@stu = common dso_local global [100050 x %struct.Student] zeroinitializer, align 16
@temp = common dso_local global %struct.Student zeroinitializer, align 4
@.str.2 = private unnamed_addr constant [7 x i8] c"%d %d\0A\00", align 1

; Function Attrs: noinline nounwind uwtable
define dso_local i32 @main() #0 {
  %1 = alloca i32, align 4
  %2 = alloca i32, align 4
  %3 = alloca i32, align 4
  %4 = alloca i32, align 4
  %5 = alloca i32, align 4
  store i32 0, i32* %1, align 4
  %6 = call i32 (i8*, ...) @__isoc99_scanf(i8* getelementptr inbounds ([3 x i8], [3 x i8]* @.str, i64 0, i64 0), i32* %2)
  store i32 0, i32* %3, align 4
  br label %7

7:                                                ; preds = %40, %0
  %8 = load i32, i32* %3, align 4
  %9 = load i32, i32* %2, align 4
  %10 = icmp slt i32 %8, %9
  br i1 %10, label %11, label %43

11:                                               ; preds = %7
  %12 = load i32, i32* %3, align 4
  %13 = sext i32 %12 to i64
  %14 = getelementptr inbounds [100050 x %struct.Student], [100050 x %struct.Student]* @stu, i64 0, i64 %13
  %15 = getelementptr inbounds %struct.Student, %struct.Student* %14, i32 0, i32 0
  %16 = load i32, i32* %3, align 4
  %17 = sext i32 %16 to i64
  %18 = getelementptr inbounds [100050 x %struct.Student], [100050 x %struct.Student]* @stu, i64 0, i64 %17
  %19 = getelementptr inbounds %struct.Student, %struct.Student* %18, i32 0, i32 1
  %20 = load i32, i32* %3, align 4
  %21 = sext i32 %20 to i64
  %22 = getelementptr inbounds [100050 x %struct.Student], [100050 x %struct.Student]* @stu, i64 0, i64 %21
  %23 = getelementptr inbounds %struct.Student, %struct.Student* %22, i32 0, i32 2
  %24 = call i32 (i8*, ...) @__isoc99_scanf(i8* getelementptr inbounds ([9 x i8], [9 x i8]* @.str.1, i64 0, i64 0), i32* %15, i32* %19, i32* %23)
  %25 = load i32, i32* %3, align 4
  %26 = sext i32 %25 to i64
  %27 = getelementptr inbounds [100050 x %struct.Student], [100050 x %struct.Student]* @stu, i64 0, i64 %26
  %28 = getelementptr inbounds %struct.Student, %struct.Student* %27, i32 0, i32 1
  %29 = load i32, i32* %28, align 4
  %30 = load i32, i32* %3, align 4
  %31 = sext i32 %30 to i64
  %32 = getelementptr inbounds [100050 x %struct.Student], [100050 x %struct.Student]* @stu, i64 0, i64 %31
  %33 = getelementptr inbounds %struct.Student, %struct.Student* %32, i32 0, i32 2
  %34 = load i32, i32* %33, align 4
  %35 = add nsw i32 %29, %34
  %36 = load i32, i32* %3, align 4
  %37 = sext i32 %36 to i64
  %38 = getelementptr inbounds [100050 x %struct.Student], [100050 x %struct.Student]* @stu, i64 0, i64 %37
  %39 = getelementptr inbounds %struct.Student, %struct.Student* %38, i32 0, i32 2
  store i32 %35, i32* %39, align 4
  br label %40

40:                                               ; preds = %11
  %41 = load i32, i32* %3, align 4
  %42 = add nsw i32 %41, 1
  store i32 %42, i32* %3, align 4
  br label %7

43:                                               ; preds = %7
  store i32 0, i32* %3, align 4
  br label %44

44:                                               ; preds = %90, %43
  %45 = load i32, i32* %3, align 4
  %46 = icmp slt i32 %45, 3
  br i1 %46, label %47, label %93

47:                                               ; preds = %44
  %48 = load i32, i32* %3, align 4
  store i32 %48, i32* %5, align 4
  %49 = load i32, i32* %3, align 4
  %50 = add nsw i32 %49, 1
  store i32 %50, i32* %4, align 4
  br label %51

51:                                               ; preds = %70, %47
  %52 = load i32, i32* %4, align 4
  %53 = load i32, i32* %2, align 4
  %54 = icmp slt i32 %52, %53
  br i1 %54, label %55, label %73

55:                                               ; preds = %51
  %56 = load i32, i32* %4, align 4
  %57 = sext i32 %56 to i64
  %58 = getelementptr inbounds [100050 x %struct.Student], [100050 x %struct.Student]* @stu, i64 0, i64 %57
  %59 = getelementptr inbounds %struct.Student, %struct.Student* %58, i32 0, i32 2
  %60 = load i32, i32* %59, align 4
  %61 = load i32, i32* %5, align 4
  %62 = sext i32 %61 to i64
  %63 = getelementptr inbounds [100050 x %struct.Student], [100050 x %struct.Student]* @stu, i64 0, i64 %62
  %64 = getelementptr inbounds %struct.Student, %struct.Student* %63, i32 0, i32 2
  %65 = load i32, i32* %64, align 4
  %66 = icmp sgt i32 %60, %65
  br i1 %66, label %67, label %69

67:                                               ; preds = %55
  %68 = load i32, i32* %4, align 4
  store i32 %68, i32* %5, align 4
  br label %69

69:                                               ; preds = %67, %55
  br label %70

70:                                               ; preds = %69
  %71 = load i32, i32* %4, align 4
  %72 = add nsw i32 %71, 1
  store i32 %72, i32* %4, align 4
  br label %51

73:                                               ; preds = %51
  %74 = load i32, i32* %5, align 4
  %75 = sext i32 %74 to i64
  %76 = getelementptr inbounds [100050 x %struct.Student], [100050 x %struct.Student]* @stu, i64 0, i64 %75
  %77 = bitcast %struct.Student* %76 to i8*
  call void @llvm.memcpy.p0i8.p0i8.i64(i8* align 4 bitcast (%struct.Student* @temp to i8*), i8* align 4 %77, i64 12, i1 false)
  %78 = load i32, i32* %5, align 4
  %79 = sext i32 %78 to i64
  %80 = getelementptr inbounds [100050 x %struct.Student], [100050 x %struct.Student]* @stu, i64 0, i64 %79
  %81 = load i32, i32* %3, align 4
  %82 = sext i32 %81 to i64
  %83 = getelementptr inbounds [100050 x %struct.Student], [100050 x %struct.Student]* @stu, i64 0, i64 %82
  %84 = bitcast %struct.Student* %80 to i8*
  %85 = bitcast %struct.Student* %83 to i8*
  call void @llvm.memcpy.p0i8.p0i8.i64(i8* align 4 %84, i8* align 4 %85, i64 12, i1 false)
  %86 = load i32, i32* %3, align 4
  %87 = sext i32 %86 to i64
  %88 = getelementptr inbounds [100050 x %struct.Student], [100050 x %struct.Student]* @stu, i64 0, i64 %87
  %89 = bitcast %struct.Student* %88 to i8*
  call void @llvm.memcpy.p0i8.p0i8.i64(i8* align 4 %89, i8* align 4 bitcast (%struct.Student* @temp to i8*), i64 12, i1 false)
  br label %90

90:                                               ; preds = %73
  %91 = load i32, i32* %3, align 4
  %92 = add nsw i32 %91, 1
  store i32 %92, i32* %3, align 4
  br label %44

93:                                               ; preds = %44
  store i32 0, i32* %3, align 4
  br label %94

94:                                               ; preds = %109, %93
  %95 = load i32, i32* %3, align 4
  %96 = icmp slt i32 %95, 3
  br i1 %96, label %97, label %112

97:                                               ; preds = %94
  %98 = load i32, i32* %3, align 4
  %99 = sext i32 %98 to i64
  %100 = getelementptr inbounds [100050 x %struct.Student], [100050 x %struct.Student]* @stu, i64 0, i64 %99
  %101 = getelementptr inbounds %struct.Student, %struct.Student* %100, i32 0, i32 0
  %102 = load i32, i32* %101, align 4
  %103 = load i32, i32* %3, align 4
  %104 = sext i32 %103 to i64
  %105 = getelementptr inbounds [100050 x %struct.Student], [100050 x %struct.Student]* @stu, i64 0, i64 %104
  %106 = getelementptr inbounds %struct.Student, %struct.Student* %105, i32 0, i32 2
  %107 = load i32, i32* %106, align 4
  %108 = call i32 (i8*, ...) @printf(i8* getelementptr inbounds ([7 x i8], [7 x i8]* @.str.2, i64 0, i64 0), i32 %102, i32 %107)
  br label %109

109:                                              ; preds = %97
  %110 = load i32, i32* %3, align 4
  %111 = add nsw i32 %110, 1
  store i32 %111, i32* %3, align 4
  br label %94

112:                                              ; preds = %94
  %113 = load i32, i32* %1, align 4
  ret i32 %113
}

declare dso_local i32 @__isoc99_scanf(i8*, ...) #1

; Function Attrs: argmemonly nounwind willreturn
declare void @llvm.memcpy.p0i8.p0i8.i64(i8* noalias nocapture writeonly, i8* noalias nocapture readonly, i64, i1 immarg) #2

declare dso_local i32 @printf(i8*, ...) #1


!llvm.module.flags = !{!0}
!llvm.ident = !{!1}

!0 = !{i32 1, !"wchar_size", i32 4}
!1 = !{!"clang version 10.0.0-4ubuntu1 "}
